target datalayout = "e-m:e-p270:32:32-p271:32:32-p272:64:64-i64:64-i128:128-f80:128-n8:16:32:64-S128"
target triple = "x86_64-pc-linux-gnu"

%struct.DES_ks = type { [16 x %union.anon] }
%union.anon = type { [2 x i32] }

@.str.24 = private unnamed_addr constant [26 x i8] c"../openssl/test/destest.c\00", align 1
@.str.32 = private unnamed_addr constant [35 x i8] c"DES_set_key_checked(&cbc_key, &ks)\00", align 1
@.str.33 = private unnamed_addr constant [2 x i8] c"0\00", align 1
@cbc_key = internal global [8 x i8] c"\01#Eg\89\AB\CD\EF", align 1
@cbc_iv = internal global [8 x i8] c"\FE\DC\BA\98vT2\10", align 1
@.str.34 = private unnamed_addr constant [8 x i8] c"cbc_out\00", align 1
@.str.36 = private unnamed_addr constant [7 x i8] c"cbc_in\00", align 1
@.str.37 = private unnamed_addr constant [9 x i8] c"cbc_data\00", align 1
@cbc_data = internal global <{ [30 x i8], [10 x i8] }> <{ [30 x i8] c"7654321 Now is the time for \001", [10 x i8] zeroinitializer }>, align 16
@.str.45 = private unnamed_addr constant [8 x i8] c"pcbc_ok\00", align 1
@pcbc_ok = internal global [32 x i8] c"\CC\D1s\FF\AB 9\F4m\EC\B4p\A0\E5k\15\AE\A6\BFa\ED}\9C\9F\F7\17F;\8A\B3\CC\88", align 16

; Function Attrs: nounwind uwtable
define internal i32 @test_des_pcbc() #0 {
  %1 = alloca i32, align 4
  %2 = alloca [40 x i8], align 16
  %3 = alloca [40 x i8], align 16
  %4 = alloca %struct.DES_ks, align 4
  %5 = alloca i32, align 4
  %6 = alloca i32, align 4
  call void @llvm.lifetime.start.p0(i64 40, ptr %2) #6
  call void @llvm.lifetime.start.p0(i64 40, ptr %3) #6
  call void @llvm.lifetime.start.p0(i64 128, ptr %4) #6
  call void @llvm.lifetime.start.p0(i64 4, ptr %5) #6
  %7 = call i64 @strlen(ptr noundef @cbc_data) #7
  %8 = add i64 %7, 1
  %9 = trunc i64 %8 to i32
  store i32 %9, ptr %5, align 4, !tbaa !4
  %10 = call i32 @DES_set_key_checked(ptr noundef @cbc_key, ptr noundef %4)
  %11 = call i32 @test_int_eq(ptr noundef @.str.24, i32 noundef 504, ptr noundef @.str.32, ptr noundef @.str.33, i32 noundef %10, i32 noundef 0)
  %12 = icmp ne i32 %11, 0
  br i1 %12, label %14, label %13

13:                                               ; preds = %0
  store i32 0, ptr %1, align 4
  store i32 1, ptr %6, align 4
  br label %35

14:                                               ; preds = %0
  %15 = getelementptr inbounds [40 x i8], ptr %3, i64 0, i64 0
  call void @llvm.memset.p0.i64(ptr align 16 %15, i8 0, i64 40, i1 false)
  %16 = getelementptr inbounds [40 x i8], ptr %2, i64 0, i64 0
  call void @llvm.memset.p0.i64(ptr align 16 %16, i8 0, i64 40, i1 false)
  %17 = getelementptr inbounds [40 x i8], ptr %3, i64 0, i64 0
  %18 = load i32, ptr %5, align 4, !tbaa !4
  %19 = sext i32 %18 to i64
  call void @DES_pcbc_encrypt(ptr noundef @cbc_data, ptr noundef %17, i64 noundef %19, ptr noundef %4, ptr noundef @cbc_iv, i32 noundef 1)
  %20 = getelementptr inbounds [40 x i8], ptr %3, i64 0, i64 0
  %21 = call i32 @test_mem_eq(ptr noundef @.str.24, i32 noundef 510, ptr noundef @.str.34, ptr noundef @.str.45, ptr noundef %20, i64 noundef 32, ptr noundef @pcbc_ok, i64 noundef 32)
  %22 = icmp ne i32 %21, 0
  br i1 %22, label %24, label %23

23:                                               ; preds = %14
  store i32 0, ptr %1, align 4
  store i32 1, ptr %6, align 4
  br label %35

24:                                               ; preds = %14
  %25 = getelementptr inbounds [40 x i8], ptr %3, i64 0, i64 0
  %26 = getelementptr inbounds [40 x i8], ptr %2, i64 0, i64 0
  %27 = load i32, ptr %5, align 4, !tbaa !4
  %28 = sext i32 %27 to i64
  call void @DES_pcbc_encrypt(ptr noundef %25, ptr noundef %26, i64 noundef %28, ptr noundef %4, ptr noundef @cbc_iv, i32 noundef 0)
  %29 = getelementptr inbounds [40 x i8], ptr %2, i64 0, i64 0
  %30 = load i32, ptr %5, align 4, !tbaa !4
  %31 = sext i32 %30 to i64
  %32 = load i32, ptr %5, align 4, !tbaa !4
  %33 = sext i32 %32 to i64
  %34 = call i32 @test_mem_eq(ptr noundef @.str.24, i32 noundef 514, ptr noundef @.str.36, ptr noundef @.str.37, ptr noundef %29, i64 noundef %31, ptr noundef @cbc_data, i64 noundef %33)
  store i32 %34, ptr %1, align 4
  store i32 1, ptr %6, align 4
  br label %35

35:                                               ; preds = %24, %23, %13
  call void @llvm.lifetime.end.p0(i64 4, ptr %5) #6
  call void @llvm.lifetime.end.p0(i64 128, ptr %4) #6
  call void @llvm.lifetime.end.p0(i64 40, ptr %3) #6
  call void @llvm.lifetime.end.p0(i64 40, ptr %2) #6
  %36 = load i32, ptr %1, align 4
  ret i32 %36
}