; Function Attrs: nounwind uwtable
define internal i32 @test_des_pcbc() #0 {
  %1 = alloca [40 x i8], align 16
  %2 = alloca [40 x i8], align 16
  %3 = alloca %struct.DES_ks, align 4
  call void @llvm.lifetime.start.p0(i64 40, ptr nonnull %1) #6
  call void @llvm.lifetime.start.p0(i64 40, ptr nonnull %2) #6
  call void @llvm.lifetime.start.p0(i64 128, ptr nonnull %3) #6
  %4 = tail call i64 @strlen(ptr noundef nonnull dereferenceable(1) @cbc_data) #7
  %5 = call i32 @DES_set_key_checked(ptr noundef nonnull @cbc_key, ptr noundef nonnull %3) #6
  %6 = call i32 @test_int_eq(ptr noundef nonnull @.str.24, i32 noundef 504, ptr noundef nonnull @.str.32, ptr noundef nonnull @.str.33, i32 noundef %5, i32 noundef 0) #6
  %.not = icmp eq i32 %6, 0
  br i1 %.not, label %13, label %7

7:                                                ; preds = %0
  call void @llvm.memset.p0.i64(ptr noundef nonnull align 16 dereferenceable(40) %2, i8 0, i64 40, i1 false)
  call void @llvm.memset.p0.i64(ptr noundef nonnull align 16 dereferenceable(40) %1, i8 0, i64 40, i1 false)
  %8 = shl i64 %4, 32
  %sext = add i64 %8, 4294967296
  %9 = ashr exact i64 %sext, 32
  call void @DES_pcbc_encrypt(ptr noundef nonnull @cbc_data, ptr noundef nonnull %2, i64 noundef %9, ptr noundef nonnull %3, ptr noundef nonnull @cbc_iv, i32 noundef 1) #6
  %10 = call i32 @test_mem_eq(ptr noundef nonnull @.str.24, i32 noundef 510, ptr noundef nonnull @.str.34, ptr noundef nonnull @.str.45, ptr noundef nonnull %2, i64 noundef 32, ptr noundef nonnull @pcbc_ok, i64 noundef 32) #6
  %.not5 = icmp eq i32 %10, 0
  br i1 %.not5, label %13, label %11

11:                                               ; preds = %7
  call void @DES_pcbc_encrypt(ptr noundef nonnull %2, ptr noundef nonnull %1, i64 noundef %9, ptr noundef nonnull %3, ptr noundef nonnull @cbc_iv, i32 noundef 0) #6
  %12 = call i32 @test_mem_eq(ptr noundef nonnull @.str.24, i32 noundef 514, ptr noundef nonnull @.str.36, ptr noundef nonnull @.str.37, ptr noundef nonnull %1, i64 noundef %9, ptr noundef nonnull @cbc_data, i64 noundef %9) #6
  br label %13

13:                                               ; preds = %7, %0, %11
  %.0 = phi i32 [ %12, %11 ], [ 0, %0 ], [ 0, %7 ]
  call void @llvm.lifetime.end.p0(i64 128, ptr nonnull %3) #6
  call void @llvm.lifetime.end.p0(i64 40, ptr nonnull %2) #6
  call void @llvm.lifetime.end.p0(i64 40, ptr nonnull %1) #6
  ret i32 %.0
}